target datalayout = "e-m:e-p270:32:32-p271:32:32-p272:64:64-i64:64-i128:128-f80:128-n8:16:32:64-S128"
target triple = "x86_64-pc-linux-gnu"

%"class.google::protobuf::io::CodedInputStream" = type { ptr, ptr, ptr, i32, i32, i32, i8, i8, i32, i32, i32, i32, i32, ptr, ptr }

; Function Attrs: inlinehint mustprogress nounwind uwtable
define linkonce_odr void @_ZN6google8protobuf2io16CodedInputStream7AdvanceEi(ptr noundef nonnull align 8 dereferenceable(80) %0, i32 noundef %1) #8 comdat align 2 {
  %3 = alloca ptr, align 8
  %4 = alloca i32, align 4
  store ptr %0, ptr %3, align 8, !tbaa !3
  store i32 %1, ptr %4, align 4, !tbaa !18
  %5 = load ptr, ptr %3, align 8
  %6 = load i32, ptr %4, align 4, !tbaa !18
  %7 = getelementptr inbounds nuw %"class.google::protobuf::io::CodedInputStream", ptr %5, i32 0, i32 0
  %8 = load ptr, ptr %7, align 8, !tbaa !22
  %9 = sext i32 %6 to i64
  %10 = getelementptr inbounds i8, ptr %8, i64 %9
  store ptr %10, ptr %7, align 8, !tbaa !22
  ret void
}

; Function Attrs: mustprogress uwtable
define noundef zeroext i1 @_ZN6google8protobuf2io16CodedInputStream16ReadVarint64SlowEPm(ptr noundef nonnull align 8 dereferenceable(80) %0, ptr noundef %1) #5 align 2 {
  %3 = alloca i1, align 1
  %4 = alloca ptr, align 8
  %5 = alloca ptr, align 8
  %6 = alloca i64, align 8
  %7 = alloca i32, align 4
  %8 = alloca i32, align 4
  %9 = alloca i32, align 4
  store ptr %0, ptr %4, align 8, !tbaa !3
  store ptr %1, ptr %5, align 8, !tbaa !52
  %10 = load ptr, ptr %4, align 8
  call void @llvm.lifetime.start.p0(i64 8, ptr %6) #3
  store i64 0, ptr %6, align 8, !tbaa !30
  call void @llvm.lifetime.start.p0(i64 4, ptr %7) #3
  store i32 0, ptr %7, align 4, !tbaa !18
  call void @llvm.lifetime.start.p0(i64 4, ptr %8) #3
  br label %11

11:                                               ; preds = %44, %2
  %12 = load i32, ptr %7, align 4, !tbaa !18
  %13 = icmp eq i32 %12, 10
  br i1 %13, label %14, label %16

14:                                               ; preds = %11
  %15 = load ptr, ptr %5, align 8, !tbaa !52
  store i64 0, ptr %15, align 8, !tbaa !30
  store i1 false, ptr %3, align 1
  store i32 1, ptr %9, align 4
  br label %51

16:                                               ; preds = %11
  br label %17

17:                                               ; preds = %27, %16
  %18 = getelementptr inbounds nuw %"class.google::protobuf::io::CodedInputStream", ptr %10, i32 0, i32 0
  %19 = load ptr, ptr %18, align 8, !tbaa !22
  %20 = getelementptr inbounds nuw %"class.google::protobuf::io::CodedInputStream", ptr %10, i32 0, i32 1
  %21 = load ptr, ptr %20, align 8, !tbaa !23
  %22 = icmp eq ptr %19, %21
  br i1 %22, label %23, label %28

23:                                               ; preds = %17
  %24 = call noundef zeroext i1 @_ZN6google8protobuf2io16CodedInputStream7RefreshEv(ptr noundef nonnull align 8 dereferenceable(80) %10)
  br i1 %24, label %27, label %25

25:                                               ; preds = %23
  %26 = load ptr, ptr %5, align 8, !tbaa !52
  store i64 0, ptr %26, align 8, !tbaa !30
  store i1 false, ptr %3, align 1
  store i32 1, ptr %9, align 4
  br label %51

27:                                               ; preds = %23
  br label %17, !llvm.loop !66

28:                                               ; preds = %17
  %29 = getelementptr inbounds nuw %"class.google::protobuf::io::CodedInputStream", ptr %10, i32 0, i32 0
  %30 = load ptr, ptr %29, align 8, !tbaa !22
  %31 = load i8, ptr %30, align 1, !tbaa !29
  %32 = zext i8 %31 to i32
  store i32 %32, ptr %8, align 4, !tbaa !18
  %33 = load i32, ptr %8, align 4, !tbaa !18
  %34 = and i32 %33, 127
  %35 = zext i32 %34 to i64
  %36 = load i32, ptr %7, align 4, !tbaa !18
  %37 = mul nsw i32 7, %36
  %38 = zext i32 %37 to i64
  %39 = shl i64 %35, %38
  %40 = load i64, ptr %6, align 8, !tbaa !30
  %41 = or i64 %40, %39
  store i64 %41, ptr %6, align 8, !tbaa !30
  call void @_ZN6google8protobuf2io16CodedInputStream7AdvanceEi(ptr noundef nonnull align 8 dereferenceable(80) %10, i32 noundef 1)
  %42 = load i32, ptr %7, align 4, !tbaa !18
  %43 = add nsw i32 %42, 1
  store i32 %43, ptr %7, align 4, !tbaa !18
  br label %44

44:                                               ; preds = %28
  %45 = load i32, ptr %8, align 4, !tbaa !18
  %46 = and i32 %45, 128
  %47 = icmp ne i32 %46, 0
  br i1 %47, label %11, label %48, !llvm.loop !67

48:                                               ; preds = %44
  %49 = load i64, ptr %6, align 8, !tbaa !30
  %50 = load ptr, ptr %5, align 8, !tbaa !52
  store i64 %49, ptr %50, align 8, !tbaa !30
  store i1 true, ptr %3, align 1
  store i32 1, ptr %9, align 4
  br label %51

51:                                               ; preds = %48, %25, %14
  call void @llvm.lifetime.end.p0(i64 4, ptr %8) #3
  call void @llvm.lifetime.end.p0(i64 4, ptr %7) #3
  call void @llvm.lifetime.end.p0(i64 8, ptr %6) #3
  %52 = load i1, ptr %3, align 1
  ret i1 %52
}