; Function Attrs: mustprogress uwtable
define noundef zeroext i1 @_ZN6google8protobuf2io16CodedInputStream16ReadVarint64SlowEPm(ptr noundef nonnull align 8 captures(none) dereferenceable(80) %0, ptr noundef writeonly captures(none) %1) local_unnamed_addr #4 align 2 {
  %3 = getelementptr inbounds nuw i8, ptr %0, i64 8
  br label %4

4:                                                ; preds = %10, %2
  %indvars.iv = phi i64 [ %indvars.iv.next, %10 ], [ 0, %2 ]
  %.012 = phi i64 [ %16, %10 ], [ 0, %2 ]
  %.not23 = icmp ne i64 %indvars.iv, 10
  br i1 %.not23, label %.preheader, label %.loopexit

.preheader:                                       ; preds = %4, %8
  %5 = load ptr, ptr %0, align 8, !tbaa !15
  %6 = load ptr, ptr %3, align 8, !tbaa !14
  %7 = icmp eq ptr %5, %6
  br i1 %7, label %8, label %10

8:                                                ; preds = %.preheader
  %9 = tail call noundef zeroext i1 @_ZN6google8protobuf2io16CodedInputStream7RefreshEv(ptr noundef nonnull align 8 dereferenceable(80) %0)
  br i1 %9, label %.preheader, label %.loopexit, !llvm.loop !50

10:                                               ; preds = %.preheader
  %11 = load i8, ptr %5, align 1, !tbaa !27
  %12 = and i8 %11, 127
  %13 = zext nneg i8 %12 to i64
  %14 = mul nuw nsw i64 %indvars.iv, 7
  %15 = shl i64 %13, %14
  %16 = or i64 %15, %.012
  %17 = getelementptr inbounds nuw i8, ptr %5, i64 1
  store ptr %17, ptr %0, align 8, !tbaa !15
  %indvars.iv.next = add nuw nsw i64 %indvars.iv, 1
  %.not = icmp sgt i8 %11, -1
  br i1 %.not, label %.loopexit, label %4, !llvm.loop !51

.loopexit:                                        ; preds = %10, %4, %8
  %.lcssa20.sink = phi i64 [ 0, %8 ], [ 0, %4 ], [ %16, %10 ]
  %.0 = phi i1 [ false, %8 ], [ %.not23, %4 ], [ %.not23, %10 ]
  store i64 %.lcssa20.sink, ptr %1, align 8, !tbaa !52
  ret i1 %.0
}